target datalayout = "e-m:e-p270:32:32-p271:32:32-p272:64:64-i64:64-i128:128-f80:128-n8:16:32:64-S128"
target triple = "x86_64-pc-linux-gnu"

%struct.nameData = type { [64 x i8] }
%struct.RelationData = type { %struct.RelFileLocator, ptr, i32, i32, i8, i8, i8, i8, i8, i32, i32, i32, i32, ptr, ptr, i32, %struct.LockInfoData, ptr, ptr, ptr, ptr, ptr, i8, ptr, ptr, ptr, ptr, ptr, ptr, i32, ptr, i8, ptr, ptr, i32, i8, i32, ptr, i8, ptr, ptr, ptr, ptr, ptr, ptr, ptr, i32, ptr, ptr, ptr, ptr, ptr, ptr, ptr, ptr, ptr, ptr, ptr, ptr, ptr, ptr, ptr, ptr, ptr, ptr, ptr, i32, i8, ptr }
%struct.RelFileLocator = type { i32, i32, i32 }
%struct.LockInfoData = type { %struct.LockRelId }
%struct.LockRelId = type { i32, i32 }
%struct.FormData_pg_class = type { i32, %struct.nameData, i32, i32, i32, i32, i32, i32, i32, i32, float, i32, i32, i8, i8, i8, i8, i16, i16, i8, i8, i8, i8, i8, i8, i8, i8, i32, i32, i32 }
%struct.TableAmRoutine = type { i32, ptr, ptr, ptr, ptr, ptr, ptr, ptr, ptr, ptr, ptr, ptr, ptr, ptr, ptr, ptr, ptr, ptr, ptr, ptr, ptr, ptr, ptr, ptr, ptr, ptr, ptr, ptr, ptr, ptr, ptr, ptr, ptr, ptr, ptr, ptr, ptr, ptr, ptr, ptr, ptr, ptr, ptr, ptr, ptr, ptr }

; Function Attrs: inlinehint nounwind uwtable
define internal void @table_relation_nontransactional_truncate(ptr noundef %0) #5 {
  %2 = alloca ptr, align 8
  store ptr %0, ptr %2, align 8
  %3 = load ptr, ptr %2, align 8
  %4 = getelementptr inbounds nuw %struct.RelationData, ptr %3, i32 0, i32 47
  %5 = load ptr, ptr %4, align 8
  %6 = getelementptr inbounds nuw %struct.TableAmRoutine, ptr %5, i32 0, i32 29
  %7 = load ptr, ptr %6, align 8
  %8 = load ptr, ptr %2, align 8
  call void %7(ptr noundef %8)
  ret void
}

; Function Attrs: nounwind uwtable
define dso_local void @heap_truncate_one_rel(ptr noundef %0) #0 {
  %2 = alloca ptr, align 8
  %3 = alloca i32, align 4
  %4 = alloca i32, align 4
  %5 = alloca ptr, align 8
  store ptr %0, ptr %2, align 8
  call void @llvm.lifetime.start.p0(i64 4, ptr %3) #10
  %6 = load ptr, ptr %2, align 8
  %7 = getelementptr inbounds nuw %struct.RelationData, ptr %6, i32 0, i32 13
  %8 = load ptr, ptr %7, align 8
  %9 = getelementptr inbounds nuw %struct.FormData_pg_class, ptr %8, i32 0, i32 16
  %10 = load i8, ptr %9, align 1
  %11 = sext i8 %10 to i32
  %12 = icmp eq i32 %11, 112
  br i1 %12, label %13, label %14

13:                                               ; preds = %1
  store i32 1, ptr %4, align 4
  br label %31

14:                                               ; preds = %1
  %15 = load ptr, ptr %2, align 8
  call void @table_relation_nontransactional_truncate(ptr noundef %15)
  %16 = load ptr, ptr %2, align 8
  call void @RelationTruncateIndexes(ptr noundef %16)
  %17 = load ptr, ptr %2, align 8
  %18 = getelementptr inbounds nuw %struct.RelationData, ptr %17, i32 0, i32 13
  %19 = load ptr, ptr %18, align 8
  %20 = getelementptr inbounds nuw %struct.FormData_pg_class, ptr %19, i32 0, i32 12
  %21 = load i32, ptr %20, align 4
  store i32 %21, ptr %3, align 4
  %22 = load i32, ptr %3, align 4
  %23 = icmp ne i32 %22, 0
  br i1 %23, label %24, label %30

24:                                               ; preds = %14
  call void @llvm.lifetime.start.p0(i64 8, ptr %5) #10
  %25 = load i32, ptr %3, align 4
  %26 = call ptr @table_open(i32 noundef %25, i32 noundef 8)
  store ptr %26, ptr %5, align 8
  %27 = load ptr, ptr %5, align 8
  call void @table_relation_nontransactional_truncate(ptr noundef %27)
  %28 = load ptr, ptr %5, align 8
  call void @RelationTruncateIndexes(ptr noundef %28)
  %29 = load ptr, ptr %5, align 8
  call void @table_close(ptr noundef %29, i32 noundef 0)
  call void @llvm.lifetime.end.p0(i64 8, ptr %5) #10
  br label %30

30:                                               ; preds = %24, %14
  store i32 0, ptr %4, align 4
  br label %31

31:                                               ; preds = %30, %13
  call void @llvm.lifetime.end.p0(i64 4, ptr %3) #10
  %32 = load i32, ptr %4, align 4
  switch i32 %32, label %34 [
    i32 0, label %33
    i32 1, label %33
  ]

33:                                               ; preds = %31, %31
  ret void

34:                                               ; preds = %31
  unreachable
}