; Function Attrs: nounwind uwtable
define dso_local void @heap_truncate_one_rel(ptr noundef %0) local_unnamed_addr #0 {
  %2 = getelementptr inbounds nuw i8, ptr %0, i64 56
  %3 = load ptr, ptr %2, align 8
  %4 = getelementptr inbounds nuw i8, ptr %3, i64 115
  %5 = load i8, ptr %4, align 1
  %6 = icmp eq i8 %5, 112
  br i1 %6, label %21, label %7

7:                                                ; preds = %1
  %8 = getelementptr inbounds nuw i8, ptr %0, i64 320
  %9 = load ptr, ptr %8, align 8
  %10 = getelementptr inbounds nuw i8, ptr %9, i64 232
  %11 = load ptr, ptr %10, align 8
  tail call void %11(ptr noundef nonnull %0) #11
  tail call fastcc void @RelationTruncateIndexes(ptr noundef nonnull %0)
  %12 = load ptr, ptr %2, align 8
  %13 = getelementptr inbounds nuw i8, ptr %12, i64 108
  %14 = load i32, ptr %13, align 4
  %.not = icmp eq i32 %14, 0
  br i1 %.not, label %21, label %15

15:                                               ; preds = %7
  %16 = tail call ptr @table_open(i32 noundef %14, i32 noundef 8) #11
  %17 = getelementptr inbounds nuw i8, ptr %16, i64 320
  %18 = load ptr, ptr %17, align 8
  %19 = getelementptr inbounds nuw i8, ptr %18, i64 232
  %20 = load ptr, ptr %19, align 8
  tail call void %20(ptr noundef %16) #11
  tail call fastcc void @RelationTruncateIndexes(ptr noundef %16)
  tail call void @table_close(ptr noundef %16, i32 noundef 0) #11
  br label %21

21:                                               ; preds = %7, %15, %1
  ret void
}